target datalayout = "e-m:e-p270:32:32-p271:32:32-p272:64:64-i64:64-i128:128-f80:128-n8:16:32:64-S128"
target triple = "x86_64-pc-linux-gnu"

%struct.blk_SHA256_CTX = type { [8 x i32], i64, i32, [64 x i8] }

@blk_SHA256_Final.pad = internal constant <{ i8, [63 x i8] }> <{ i8 -128, [63 x i8] zeroinitializer }>, align 16

; Function Attrs: inlinehint nounwind uwtable
define internal i32 @default_swab32(i32 noundef %0) #3 {
  %2 = alloca i32, align 4
  store i32 %0, ptr %2, align 4, !tbaa !14
  %3 = load i32, ptr %2, align 4, !tbaa !14
  %4 = and i32 %3, -16777216
  %5 = lshr i32 %4, 24
  %6 = load i32, ptr %2, align 4, !tbaa !14
  %7 = and i32 %6, 16711680
  %8 = lshr i32 %7, 8
  %9 = or i32 %5, %8
  %10 = load i32, ptr %2, align 4, !tbaa !14
  %11 = and i32 %10, 65280
  %12 = shl i32 %11, 8
  %13 = or i32 %9, %12
  %14 = load i32, ptr %2, align 4, !tbaa !14
  %15 = and i32 %14, 255
  %16 = shl i32 %15, 24
  %17 = or i32 %13, %16
  ret i32 %17
}

; Function Attrs: inlinehint nounwind uwtable
define internal void @put_be32(ptr noundef %0, i32 noundef %1) #3 {
  %3 = alloca ptr, align 8
  %4 = alloca i32, align 4
  %5 = alloca ptr, align 8
  store ptr %0, ptr %3, align 8, !tbaa !15
  store i32 %1, ptr %4, align 4, !tbaa !14
  call void @llvm.lifetime.start.p0(i64 8, ptr %5) #5
  %6 = load ptr, ptr %3, align 8, !tbaa !15
  store ptr %6, ptr %5, align 8, !tbaa !19
  %7 = load i32, ptr %4, align 4, !tbaa !14
  %8 = lshr i32 %7, 24
  %9 = and i32 %8, 255
  %10 = trunc i32 %9 to i8
  %11 = load ptr, ptr %5, align 8, !tbaa !19
  %12 = getelementptr inbounds i8, ptr %11, i64 0
  store i8 %10, ptr %12, align 1, !tbaa !27
  %13 = load i32, ptr %4, align 4, !tbaa !14
  %14 = lshr i32 %13, 16
  %15 = and i32 %14, 255
  %16 = trunc i32 %15 to i8
  %17 = load ptr, ptr %5, align 8, !tbaa !19
  %18 = getelementptr inbounds i8, ptr %17, i64 1
  store i8 %16, ptr %18, align 1, !tbaa !27
  %19 = load i32, ptr %4, align 4, !tbaa !14
  %20 = lshr i32 %19, 8
  %21 = and i32 %20, 255
  %22 = trunc i32 %21 to i8
  %23 = load ptr, ptr %5, align 8, !tbaa !19
  %24 = getelementptr inbounds i8, ptr %23, i64 2
  store i8 %22, ptr %24, align 1, !tbaa !27
  %25 = load i32, ptr %4, align 4, !tbaa !14
  %26 = lshr i32 %25, 0
  %27 = and i32 %26, 255
  %28 = trunc i32 %27 to i8
  %29 = load ptr, ptr %5, align 8, !tbaa !19
  %30 = getelementptr inbounds i8, ptr %29, i64 3
  store i8 %28, ptr %30, align 1, !tbaa !27
  call void @llvm.lifetime.end.p0(i64 8, ptr %5) #5
  ret void
}

; Function Attrs: nounwind uwtable
define dso_local void @blk_SHA256_Update(ptr noundef %0, ptr noundef %1, i64 noundef %2) #0 {
  %4 = alloca ptr, align 8
  %5 = alloca ptr, align 8
  %6 = alloca i64, align 8
  %7 = alloca i32, align 4
  %8 = alloca i32, align 4
  %9 = alloca i32, align 4
  store ptr %0, ptr %4, align 8, !tbaa !4
  store ptr %1, ptr %5, align 8, !tbaa !15
  store i64 %2, ptr %6, align 8, !tbaa !16
  call void @llvm.lifetime.start.p0(i64 4, ptr %7) #5
  %10 = load ptr, ptr %4, align 8, !tbaa !4
  %11 = getelementptr inbounds nuw %struct.blk_SHA256_CTX, ptr %10, i32 0, i32 1
  %12 = load i64, ptr %11, align 8, !tbaa !13
  %13 = and i64 %12, 63
  %14 = trunc i64 %13 to i32
  store i32 %14, ptr %7, align 4, !tbaa !14
  %15 = load i64, ptr %6, align 8, !tbaa !16
  %16 = load ptr, ptr %4, align 8, !tbaa !4
  %17 = getelementptr inbounds nuw %struct.blk_SHA256_CTX, ptr %16, i32 0, i32 1
  %18 = load i64, ptr %17, align 8, !tbaa !13
  %19 = add i64 %18, %15
  store i64 %19, ptr %17, align 8, !tbaa !13
  %20 = load i32, ptr %7, align 4, !tbaa !14
  %21 = icmp ne i32 %20, 0
  br i1 %21, label %22, label %65

22:                                               ; preds = %3
  call void @llvm.lifetime.start.p0(i64 4, ptr %8) #5
  %23 = load i32, ptr %7, align 4, !tbaa !14
  %24 = sub i32 64, %23
  store i32 %24, ptr %8, align 4, !tbaa !14
  %25 = load i64, ptr %6, align 8, !tbaa !16
  %26 = load i32, ptr %8, align 4, !tbaa !14
  %27 = zext i32 %26 to i64
  %28 = icmp ult i64 %25, %27
  br i1 %28, label %29, label %32

29:                                               ; preds = %22
  %30 = load i64, ptr %6, align 8, !tbaa !16
  %31 = trunc i64 %30 to i32
  store i32 %31, ptr %8, align 4, !tbaa !14
  br label %32

32:                                               ; preds = %29, %22
  %33 = load i32, ptr %7, align 4, !tbaa !14
  %34 = load ptr, ptr %4, align 8, !tbaa !4
  %35 = getelementptr inbounds nuw %struct.blk_SHA256_CTX, ptr %34, i32 0, i32 3
  %36 = getelementptr inbounds [64 x i8], ptr %35, i64 0, i64 0
  %37 = zext i32 %33 to i64
  %38 = getelementptr inbounds nuw i8, ptr %36, i64 %37
  %39 = load ptr, ptr %5, align 8, !tbaa !15
  %40 = load i32, ptr %8, align 4, !tbaa !14
  %41 = zext i32 %40 to i64
  call void @llvm.memcpy.p0.p0.i64(ptr align 1 %38, ptr align 1 %39, i64 %41, i1 false)
  %42 = load i32, ptr %7, align 4, !tbaa !14
  %43 = load i32, ptr %8, align 4, !tbaa !14
  %44 = add i32 %42, %43
  %45 = and i32 %44, 63
  store i32 %45, ptr %7, align 4, !tbaa !14
  %46 = load i32, ptr %8, align 4, !tbaa !14
  %47 = zext i32 %46 to i64
  %48 = load i64, ptr %6, align 8, !tbaa !16
  %49 = sub i64 %48, %47
  store i64 %49, ptr %6, align 8, !tbaa !16
  %50 = load ptr, ptr %5, align 8, !tbaa !15
  %51 = load i32, ptr %8, align 4, !tbaa !14
  %52 = zext i32 %51 to i64
  %53 = getelementptr inbounds nuw i8, ptr %50, i64 %52
  store ptr %53, ptr %5, align 8, !tbaa !15
  %54 = load i32, ptr %7, align 4, !tbaa !14
  %55 = icmp ne i32 %54, 0
  br i1 %55, label %56, label %57

56:                                               ; preds = %32
  store i32 1, ptr %9, align 4
  br label %62

57:                                               ; preds = %32
  %58 = load ptr, ptr %4, align 8, !tbaa !4
  %59 = load ptr, ptr %4, align 8, !tbaa !4
  %60 = getelementptr inbounds nuw %struct.blk_SHA256_CTX, ptr %59, i32 0, i32 3
  %61 = getelementptr inbounds [64 x i8], ptr %60, i64 0, i64 0
  call void @blk_SHA256_Transform(ptr noundef %58, ptr noundef %61)
  store i32 0, ptr %9, align 4
  br label %62

62:                                               ; preds = %57, %56
  call void @llvm.lifetime.end.p0(i64 4, ptr %8) #5
  %63 = load i32, ptr %9, align 4
  switch i32 %63, label %86 [
    i32 0, label %64
  ]

64:                                               ; preds = %62
  br label %65

65:                                               ; preds = %64, %3
  br label %66

66:                                               ; preds = %69, %65
  %67 = load i64, ptr %6, align 8, !tbaa !16
  %68 = icmp uge i64 %67, 64
  br i1 %68, label %69, label %76

69:                                               ; preds = %66
  %70 = load ptr, ptr %4, align 8, !tbaa !4
  %71 = load ptr, ptr %5, align 8, !tbaa !15
  call void @blk_SHA256_Transform(ptr noundef %70, ptr noundef %71)
  %72 = load ptr, ptr %5, align 8, !tbaa !15
  %73 = getelementptr inbounds i8, ptr %72, i64 64
  store ptr %73, ptr %5, align 8, !tbaa !15
  %74 = load i64, ptr %6, align 8, !tbaa !16
  %75 = sub i64 %74, 64
  store i64 %75, ptr %6, align 8, !tbaa !16
  br label %66, !llvm.loop !17

76:                                               ; preds = %66
  %77 = load i64, ptr %6, align 8, !tbaa !16
  %78 = icmp ne i64 %77, 0
  br i1 %78, label %79, label %85

79:                                               ; preds = %76
  %80 = load ptr, ptr %4, align 8, !tbaa !4
  %81 = getelementptr inbounds nuw %struct.blk_SHA256_CTX, ptr %80, i32 0, i32 3
  %82 = getelementptr inbounds [64 x i8], ptr %81, i64 0, i64 0
  %83 = load ptr, ptr %5, align 8, !tbaa !15
  %84 = load i64, ptr %6, align 8, !tbaa !16
  call void @llvm.memcpy.p0.p0.i64(ptr align 4 %82, ptr align 1 %83, i64 %84, i1 false)
  br label %85

85:                                               ; preds = %79, %76
  store i32 0, ptr %9, align 4
  br label %86

86:                                               ; preds = %85, %62
  call void @llvm.lifetime.end.p0(i64 4, ptr %7) #5
  %87 = load i32, ptr %9, align 4
  switch i32 %87, label %89 [
    i32 0, label %88
    i32 1, label %88
  ]

88:                                               ; preds = %86, %86
  ret void

89:                                               ; preds = %86
  unreachable
}

; Function Attrs: inlinehint nounwind uwtable
define internal i32 @git_bswap32(i32 noundef %0) #3 {
  %2 = alloca i32, align 4
  %3 = alloca i32, align 4
  store i32 %0, ptr %2, align 4, !tbaa !14
  call void @llvm.lifetime.start.p0(i64 4, ptr %3) #5
  %4 = load i32, ptr %2, align 4, !tbaa !14
  %5 = call i1 @llvm.is.constant.i32(i32 %4)
  br i1 %5, label %6, label %9

6:                                                ; preds = %1
  %7 = load i32, ptr %2, align 4, !tbaa !14
  %8 = call i32 @default_swab32(i32 noundef %7)
  store i32 %8, ptr %3, align 4, !tbaa !14
  br label %12

9:                                                ; preds = %1
  %10 = load i32, ptr %2, align 4, !tbaa !14
  %11 = call i32 asm "bswap $0", "=r,0,~{dirflag},~{fpsr},~{flags}"(i32 %10) #6, !srcloc !26
  store i32 %11, ptr %3, align 4, !tbaa !14
  br label %12

12:                                               ; preds = %9, %6
  %13 = load i32, ptr %3, align 4, !tbaa !14
  call void @llvm.lifetime.end.p0(i64 4, ptr %3) #5
  ret i32 %13
}

; Function Attrs: nounwind uwtable
define dso_local void @blk_SHA256_Final(ptr noundef %0, ptr noundef %1) #0 {
  %3 = alloca ptr, align 8
  %4 = alloca ptr, align 8
  %5 = alloca [2 x i32], align 4
  %6 = alloca i32, align 4
  store ptr %0, ptr %3, align 8, !tbaa !19
  store ptr %1, ptr %4, align 8, !tbaa !4
  call void @llvm.lifetime.start.p0(i64 8, ptr %5) #5
  call void @llvm.lifetime.start.p0(i64 4, ptr %6) #5
  %7 = load ptr, ptr %4, align 8, !tbaa !4
  %8 = getelementptr inbounds nuw %struct.blk_SHA256_CTX, ptr %7, i32 0, i32 1
  %9 = load i64, ptr %8, align 8, !tbaa !13
  %10 = lshr i64 %9, 29
  %11 = trunc i64 %10 to i32
  %12 = call i32 @git_bswap32(i32 noundef %11)
  %13 = getelementptr inbounds [2 x i32], ptr %5, i64 0, i64 0
  store i32 %12, ptr %13, align 4, !tbaa !14
  %14 = load ptr, ptr %4, align 8, !tbaa !4
  %15 = getelementptr inbounds nuw %struct.blk_SHA256_CTX, ptr %14, i32 0, i32 1
  %16 = load i64, ptr %15, align 8, !tbaa !13
  %17 = shl i64 %16, 3
  %18 = trunc i64 %17 to i32
  %19 = call i32 @git_bswap32(i32 noundef %18)
  %20 = getelementptr inbounds [2 x i32], ptr %5, i64 0, i64 1
  store i32 %19, ptr %20, align 4, !tbaa !14
  %21 = load ptr, ptr %4, align 8, !tbaa !4
  %22 = getelementptr inbounds nuw %struct.blk_SHA256_CTX, ptr %21, i32 0, i32 1
  %23 = load i64, ptr %22, align 8, !tbaa !13
  %24 = and i64 %23, 63
  %25 = trunc i64 %24 to i32
  store i32 %25, ptr %6, align 4, !tbaa !14
  %26 = load ptr, ptr %4, align 8, !tbaa !4
  %27 = load i32, ptr %6, align 4, !tbaa !14
  %28 = sub nsw i32 55, %27
  %29 = and i32 63, %28
  %30 = add nsw i32 1, %29
  %31 = sext i32 %30 to i64
  call void @blk_SHA256_Update(ptr noundef %26, ptr noundef @blk_SHA256_Final.pad, i64 noundef %31)
  %32 = load ptr, ptr %4, align 8, !tbaa !4
  %33 = getelementptr inbounds [2 x i32], ptr %5, i64 0, i64 0
  call void @blk_SHA256_Update(ptr noundef %32, ptr noundef %33, i64 noundef 8)
  store i32 0, ptr %6, align 4, !tbaa !14
  br label %34

34:                                               ; preds = %45, %2
  %35 = load i32, ptr %6, align 4, !tbaa !14
  %36 = icmp slt i32 %35, 8
  br i1 %36, label %37, label %50

37:                                               ; preds = %34
  %38 = load ptr, ptr %3, align 8, !tbaa !19
  %39 = load ptr, ptr %4, align 8, !tbaa !4
  %40 = getelementptr inbounds nuw %struct.blk_SHA256_CTX, ptr %39, i32 0, i32 0
  %41 = load i32, ptr %6, align 4, !tbaa !14
  %42 = sext i32 %41 to i64
  %43 = getelementptr inbounds [8 x i32], ptr %40, i64 0, i64 %42
  %44 = load i32, ptr %43, align 4, !tbaa !14
  call void @put_be32(ptr noundef %38, i32 noundef %44)
  br label %45

45:                                               ; preds = %37
  %46 = load i32, ptr %6, align 4, !tbaa !14
  %47 = add nsw i32 %46, 1
  store i32 %47, ptr %6, align 4, !tbaa !14
  %48 = load ptr, ptr %3, align 8, !tbaa !19
  %49 = getelementptr inbounds nuw i8, ptr %48, i64 4
  store ptr %49, ptr %3, align 8, !tbaa !19
  br label %34, !llvm.loop !25

50:                                               ; preds = %34
  call void @llvm.lifetime.end.p0(i64 4, ptr %6) #5
  call void @llvm.lifetime.end.p0(i64 8, ptr %5) #5
  ret void
}