; Function Attrs: nounwind memory(argmem: readwrite) uwtable
define dso_local void @blk_SHA256_Final(ptr noundef writeonly captures(none) %0, ptr noundef captures(none) %1) local_unnamed_addr #4 {
git_bswap32.exit:
  %2 = alloca [2 x i32], align 4
  call void @llvm.lifetime.start.p0(i64 8, ptr nonnull %2) #6
  %3 = getelementptr inbounds nuw i8, ptr %1, i64 32
  %4 = load i64, ptr %3, align 8, !tbaa !10
  %5 = lshr i64 %4, 29
  %6 = trunc i64 %5 to i32
  %7 = tail call i32 asm "bswap $0", "=r,0,~{dirflag},~{fpsr},~{flags}"(i32 %6) #7, !srcloc !18
  store i32 %7, ptr %2, align 4, !tbaa !11
  %.tr = trunc i64 %4 to i32
  %8 = shl i32 %.tr, 3
  %9 = tail call i32 asm "bswap $0", "=r,0,~{dirflag},~{fpsr},~{flags}"(i32 %8) #7, !srcloc !18
  %10 = getelementptr inbounds nuw i8, ptr %2, i64 4
  store i32 %9, ptr %10, align 4, !tbaa !11
  %11 = sub i64 55, %4
  %12 = and i64 %11, 63
  %13 = add nuw nsw i64 %12, 1
  %14 = and i32 %.tr, 63
  %15 = add i64 %13, %4
  store i64 %15, ptr %3, align 8, !tbaa !10
  %.not.i = icmp eq i32 %14, 0
  br i1 %.not.i, label %27, label %16

16:                                               ; preds = %git_bswap32.exit
  %17 = sub nuw nsw i32 64, %14
  %18 = zext nneg i32 %17 to i64
  %spec.select38.i = tail call i64 @llvm.umin.i64(i64 %13, i64 %18)
  %spec.select.i = trunc nuw nsw i64 %spec.select38.i to i32
  %19 = getelementptr inbounds nuw i8, ptr %1, i64 44
  %20 = and i64 %4, 63
  %21 = getelementptr inbounds nuw i8, ptr %19, i64 %20
  tail call void @llvm.memcpy.p0.p0.i64(ptr noundef nonnull align 1 dereferenceable(1) %21, ptr noundef nonnull align 16 dereferenceable(1) @blk_SHA256_Final.pad, i64 %spec.select38.i, i1 false)
  %22 = add i32 %spec.select.i, %.tr
  %23 = and i32 %22, 63
  %.not36.i = icmp eq i32 %23, 0
  br i1 %.not36.i, label %24, label %blk_SHA256_Update.exit

24:                                               ; preds = %16
  %25 = getelementptr inbounds nuw i8, ptr @blk_SHA256_Final.pad, i64 %spec.select38.i
  %26 = sub nsw i64 %13, %spec.select38.i
  tail call fastcc void @blk_SHA256_Transform(ptr noundef nonnull %1, ptr noundef nonnull %19)
  br label %27

27:                                               ; preds = %24, %git_bswap32.exit
  %.032.i = phi ptr [ %25, %24 ], [ @blk_SHA256_Final.pad, %git_bswap32.exit ]
  %.031.i = phi i64 [ %26, %24 ], [ %13, %git_bswap32.exit ]
  %28 = icmp ugt i64 %.031.i, 63
  br i1 %28, label %.lr.ph.i, label %._crit_edge.i

.lr.ph.i:                                         ; preds = %27, %.lr.ph.i
  %.140.i = phi i64 [ %30, %.lr.ph.i ], [ %.031.i, %27 ]
  %.13339.i = phi ptr [ %29, %.lr.ph.i ], [ %.032.i, %27 ]
  tail call fastcc void @blk_SHA256_Transform(ptr noundef %1, ptr noundef %.13339.i)
  %29 = getelementptr inbounds nuw i8, ptr %.13339.i, i64 64
  %30 = add i64 %.140.i, -64
  %31 = icmp ugt i64 %30, 63
  br i1 %31, label %.lr.ph.i, label %._crit_edge.i, !llvm.loop !12

._crit_edge.i:                                    ; preds = %.lr.ph.i, %27
  %.133.lcssa.i = phi ptr [ %.032.i, %27 ], [ %29, %.lr.ph.i ]
  %.1.lcssa.i = phi i64 [ %.031.i, %27 ], [ %30, %.lr.ph.i ]
  %.not37.i = icmp eq i64 %.1.lcssa.i, 0
  br i1 %.not37.i, label %blk_SHA256_Update.exit, label %32

32:                                               ; preds = %._crit_edge.i
  %33 = getelementptr inbounds nuw i8, ptr %1, i64 44
  tail call void @llvm.memcpy.p0.p0.i64(ptr nonnull align 4 %33, ptr align 1 %.133.lcssa.i, i64 %.1.lcssa.i, i1 false)
  br label %blk_SHA256_Update.exit

blk_SHA256_Update.exit:                           ; preds = %16, %._crit_edge.i, %32
  %34 = load i64, ptr %3, align 8, !tbaa !10
  %35 = trunc i64 %34 to i32
  %36 = and i32 %35, 63
  %37 = add i64 %34, 8
  store i64 %37, ptr %3, align 8, !tbaa !10
  %.not.i14 = icmp eq i32 %36, 0
  br i1 %.not.i14, label %._crit_edge.i20.thread, label %38

38:                                               ; preds = %blk_SHA256_Update.exit
  %39 = sub nuw nsw i32 64, %36
  %40 = tail call i32 @llvm.umin.i32(i32 %39, i32 8)
  %spec.select38.i15 = zext nneg i32 %40 to i64
  %41 = getelementptr inbounds nuw i8, ptr %1, i64 44
  %42 = and i64 %34, 63
  %43 = getelementptr inbounds nuw i8, ptr %41, i64 %42
  call void @llvm.memcpy.p0.p0.i64(ptr noundef nonnull align 1 dereferenceable(1) %43, ptr noundef nonnull readonly align 4 dereferenceable(1) %2, i64 %spec.select38.i15, i1 false)
  %44 = add i32 %40, %35
  %45 = and i32 %44, 63
  %.not36.i17 = icmp eq i32 %45, 0
  br i1 %.not36.i17, label %._crit_edge.i20, label %blk_SHA256_Update.exit27.preheader

._crit_edge.i20:                                  ; preds = %38
  %46 = getelementptr inbounds nuw i8, ptr %2, i64 %spec.select38.i15
  %47 = sub nuw nsw i64 8, %spec.select38.i15
  tail call fastcc void @blk_SHA256_Transform(ptr noundef nonnull %1, ptr noundef nonnull %41)
  %.not37.i23 = icmp samesign ult i32 %36, 57
  br i1 %.not37.i23, label %blk_SHA256_Update.exit27.preheader, label %._crit_edge.i20.thread

._crit_edge.i20.thread:                           ; preds = %blk_SHA256_Update.exit, %._crit_edge.i20
  %.1.lcssa.i2232 = phi i64 [ %47, %._crit_edge.i20 ], [ 8, %blk_SHA256_Update.exit ]
  %.133.lcssa.i2131 = phi ptr [ %46, %._crit_edge.i20 ], [ %2, %blk_SHA256_Update.exit ]
  %48 = getelementptr inbounds nuw i8, ptr %1, i64 44
  call void @llvm.memcpy.p0.p0.i64(ptr nonnull align 4 %48, ptr align 1 %.133.lcssa.i2131, i64 %.1.lcssa.i2232, i1 false)
  br label %blk_SHA256_Update.exit27.preheader

blk_SHA256_Update.exit27.preheader:               ; preds = %38, %._crit_edge.i20, %._crit_edge.i20.thread
  br label %blk_SHA256_Update.exit27

blk_SHA256_Update.exit27:                         ; preds = %blk_SHA256_Update.exit27.preheader, %blk_SHA256_Update.exit27
  %indvars.iv = phi i64 [ %indvars.iv.next, %blk_SHA256_Update.exit27 ], [ 0, %blk_SHA256_Update.exit27.preheader ]
  %.01134 = phi ptr [ %61, %blk_SHA256_Update.exit27 ], [ %0, %blk_SHA256_Update.exit27.preheader ]
  %49 = getelementptr inbounds nuw [8 x i32], ptr %1, i64 0, i64 %indvars.iv
  %50 = load i32, ptr %49, align 4, !tbaa !11
  %51 = lshr i32 %50, 24
  %52 = trunc nuw i32 %51 to i8
  store i8 %52, ptr %.01134, align 1, !tbaa !14
  %53 = lshr i32 %50, 16
  %54 = trunc i32 %53 to i8
  %55 = getelementptr inbounds nuw i8, ptr %.01134, i64 1
  store i8 %54, ptr %55, align 1, !tbaa !14
  %56 = lshr i32 %50, 8
  %57 = trunc i32 %56 to i8
  %58 = getelementptr inbounds nuw i8, ptr %.01134, i64 2
  store i8 %57, ptr %58, align 1, !tbaa !14
  %59 = trunc i32 %50 to i8
  %60 = getelementptr inbounds nuw i8, ptr %.01134, i64 3
  store i8 %59, ptr %60, align 1, !tbaa !14
  %indvars.iv.next = add nuw nsw i64 %indvars.iv, 1
  %61 = getelementptr inbounds nuw i8, ptr %.01134, i64 4
  %exitcond.not = icmp eq i64 %indvars.iv.next, 8
  br i1 %exitcond.not, label %62, label %blk_SHA256_Update.exit27, !llvm.loop !19

62:                                               ; preds = %blk_SHA256_Update.exit27
  call void @llvm.lifetime.end.p0(i64 8, ptr nonnull %2) #6
  ret void
}